target datalayout = "e-m:e-p270:32:32-p271:32:32-p272:64:64-i64:64-i128:128-f80:128-n8:16:32:64-S128"
target triple = "x86_64-pc-linux-gnu"

%"class.WasmEdge::LLVM::Context" = type { ptr }
%"class.WasmEdge::LLVM::Type" = type { ptr }
%"class.WasmEdge::ValType" = type { %union.anon.138 }
%union.anon.138 = type { %struct.anon }
%struct.anon = type { i8, i8, i8, i8, i32 }

; Function Attrs: mustprogress nounwind uwtable
define linkonce_odr hidden noundef nonnull align 8 dereferenceable(8) ptr @_ZN8WasmEdge4LLVM4Type6unwrapEv(ptr noundef nonnull align 8 dereferenceable(8) %0) #0 comdat align 2 {
  %2 = alloca ptr, align 8
  store ptr %0, ptr %2, align 8
  %3 = load ptr, ptr %2, align 8
  %4 = getelementptr inbounds %"class.WasmEdge::LLVM::Type", ptr %3, i32 0, i32 0
  ret ptr %4
}

; Function Attrs: mustprogress nounwind uwtable
define linkonce_odr hidden void @_ZN8WasmEdge4LLVM4TypeC2EP14LLVMOpaqueType(ptr noundef nonnull align 8 dereferenceable(8) %0, ptr noundef %1) unnamed_addr #0 comdat align 2 {
  %3 = alloca ptr, align 8
  %4 = alloca ptr, align 8
  store ptr %0, ptr %3, align 8
  store ptr %1, ptr %4, align 8
  %5 = load ptr, ptr %3, align 8
  %6 = getelementptr inbounds %"class.WasmEdge::LLVM::Type", ptr %5, i32 0, i32 0
  %7 = load ptr, ptr %4, align 8
  store ptr %7, ptr %6, align 8
  ret void
}

; Function Attrs: mustprogress nounwind uwtable
define linkonce_odr hidden void @_ZN8WasmEdge4LLVM7Context11getDoubleTyEv(ptr dead_on_unwind noalias writable sret(%"class.WasmEdge::LLVM::Type") align 8 %0, ptr noundef nonnull align 8 dereferenceable(8) %1) #0 comdat align 2 {
  %3 = alloca ptr, align 8
  %4 = alloca ptr, align 8
  store ptr %0, ptr %3, align 8
  store ptr %1, ptr %4, align 8
  %5 = load ptr, ptr %4, align 8
  %6 = getelementptr inbounds %"class.WasmEdge::LLVM::Context", ptr %5, i32 0, i32 0
  %7 = load ptr, ptr %6, align 8
  %8 = call ptr @LLVMDoubleTypeInContext(ptr noundef %7)
  call void @_ZN8WasmEdge4LLVM4TypeC2EP14LLVMOpaqueType(ptr noundef nonnull align 8 dereferenceable(8) %0, ptr noundef %8) #12
  ret void
}

; Function Attrs: mustprogress nounwind uwtable
define linkonce_odr hidden void @_ZN8WasmEdge4LLVM7Context10getFloatTyEv(ptr dead_on_unwind noalias writable sret(%"class.WasmEdge::LLVM::Type") align 8 %0, ptr noundef nonnull align 8 dereferenceable(8) %1) #0 comdat align 2 {
  %3 = alloca ptr, align 8
  %4 = alloca ptr, align 8
  store ptr %0, ptr %3, align 8
  store ptr %1, ptr %4, align 8
  %5 = load ptr, ptr %4, align 8
  %6 = getelementptr inbounds %"class.WasmEdge::LLVM::Context", ptr %5, i32 0, i32 0
  %7 = load ptr, ptr %6, align 8
  %8 = call ptr @LLVMFloatTypeInContext(ptr noundef %7)
  call void @_ZN8WasmEdge4LLVM4TypeC2EP14LLVMOpaqueType(ptr noundef nonnull align 8 dereferenceable(8) %0, ptr noundef %8) #12
  ret void
}

; Function Attrs: mustprogress nounwind uwtable
define linkonce_odr hidden void @_ZN8WasmEdge4LLVM4Type13getVectorTypeES1_j(ptr dead_on_unwind noalias writable sret(%"class.WasmEdge::LLVM::Type") align 8 %0, ptr noundef %1, i32 noundef %2) #0 comdat align 2 {
  %4 = alloca ptr, align 8
  %5 = alloca ptr, align 8
  %6 = alloca i32, align 4
  store ptr %0, ptr %4, align 8
  store ptr %1, ptr %5, align 8
  store i32 %2, ptr %6, align 4
  %7 = call noundef nonnull align 8 dereferenceable(8) ptr @_ZN8WasmEdge4LLVM4Type6unwrapEv(ptr noundef nonnull align 8 dereferenceable(8) %1) #12
  %8 = load ptr, ptr %7, align 8
  %9 = load i32, ptr %6, align 4
  %10 = call ptr @LLVMVectorType(ptr noundef %8, i32 noundef %9)
  call void @_ZN8WasmEdge4LLVM4TypeC2EP14LLVMOpaqueType(ptr noundef nonnull align 8 dereferenceable(8) %0, ptr noundef %10) #12
  ret void
}

; Function Attrs: mustprogress nounwind uwtable
define linkonce_odr hidden void @_ZN8WasmEdge4LLVM7Context10getInt64TyEv(ptr dead_on_unwind noalias writable sret(%"class.WasmEdge::LLVM::Type") align 8 %0, ptr noundef nonnull align 8 dereferenceable(8) %1) #0 comdat align 2 {
  %3 = alloca ptr, align 8
  %4 = alloca ptr, align 8
  store ptr %0, ptr %3, align 8
  store ptr %1, ptr %4, align 8
  %5 = load ptr, ptr %4, align 8
  %6 = getelementptr inbounds %"class.WasmEdge::LLVM::Context", ptr %5, i32 0, i32 0
  %7 = load ptr, ptr %6, align 8
  %8 = call ptr @LLVMInt64TypeInContext(ptr noundef %7)
  call void @_ZN8WasmEdge4LLVM4TypeC2EP14LLVMOpaqueType(ptr noundef nonnull align 8 dereferenceable(8) %0, ptr noundef %8) #12
  ret void
}

; Function Attrs: mustprogress nounwind uwtable
define linkonce_odr hidden void @_ZN8WasmEdge4LLVM7Context10getInt32TyEv(ptr dead_on_unwind noalias writable sret(%"class.WasmEdge::LLVM::Type") align 8 %0, ptr noundef nonnull align 8 dereferenceable(8) %1) #0 comdat align 2 {
  %3 = alloca ptr, align 8
  %4 = alloca ptr, align 8
  store ptr %0, ptr %3, align 8
  store ptr %1, ptr %4, align 8
  %5 = load ptr, ptr %4, align 8
  %6 = getelementptr inbounds %"class.WasmEdge::LLVM::Context", ptr %5, i32 0, i32 0
  %7 = load ptr, ptr %6, align 8
  %8 = call ptr @LLVMInt32TypeInContext(ptr noundef %7)
  call void @_ZN8WasmEdge4LLVM4TypeC2EP14LLVMOpaqueType(ptr noundef nonnull align 8 dereferenceable(8) %0, ptr noundef %8) #12
  ret void
}

; Function Attrs: mustprogress nounwind uwtable
define linkonce_odr hidden noundef zeroext i8 @_ZNK8WasmEdge7ValType7getCodeEv(ptr noundef nonnull align 4 dereferenceable(8) %0) #0 comdat align 2 {
  %2 = alloca ptr, align 8
  store ptr %0, ptr %2, align 8
  %3 = load ptr, ptr %2, align 8
  %4 = getelementptr inbounds %"class.WasmEdge::ValType", ptr %3, i32 0, i32 0
  %5 = getelementptr inbounds %struct.anon, ptr %4, i32 0, i32 2
  %6 = load i8, ptr %5, align 2
  ret i8 %6
}

; Function Attrs: mustprogress nounwind uwtable
define internal void @_ZN12_GLOBAL__N_110toLLVMTypeEN8WasmEdge4LLVM7ContextERKNS0_7ValTypeE(ptr dead_on_unwind noalias writable sret(%"class.WasmEdge::LLVM::Type") align 8 %0, ptr %1, ptr noundef nonnull align 4 dereferenceable(8) %2) #0 {
  %4 = alloca ptr, align 8
  %5 = alloca %"class.WasmEdge::LLVM::Context", align 8
  %6 = alloca ptr, align 8
  %7 = alloca %"class.WasmEdge::LLVM::Type", align 8
  store ptr %0, ptr %4, align 8
  %8 = getelementptr inbounds %"class.WasmEdge::LLVM::Context", ptr %5, i32 0, i32 0
  store ptr %1, ptr %8, align 8
  store ptr %2, ptr %6, align 8
  %9 = load ptr, ptr %6, align 8
  %10 = call noundef zeroext i8 @_ZNK8WasmEdge7ValType7getCodeEv(ptr noundef nonnull align 4 dereferenceable(8) %9) #12
  switch i8 %10, label %16 [
    i8 127, label %11
    i8 126, label %12
    i8 100, label %13
    i8 99, label %13
    i8 123, label %13
    i8 125, label %14
    i8 124, label %15
  ]

11:                                               ; preds = %3
  call void @_ZN8WasmEdge4LLVM7Context10getInt32TyEv(ptr dead_on_unwind writable sret(%"class.WasmEdge::LLVM::Type") align 8 %0, ptr noundef nonnull align 8 dereferenceable(8) %5) #12
  br label %17

12:                                               ; preds = %3
  call void @_ZN8WasmEdge4LLVM7Context10getInt64TyEv(ptr dead_on_unwind writable sret(%"class.WasmEdge::LLVM::Type") align 8 %0, ptr noundef nonnull align 8 dereferenceable(8) %5) #12
  br label %17

13:                                               ; preds = %3, %3, %3
  call void @_ZN8WasmEdge4LLVM7Context10getInt64TyEv(ptr dead_on_unwind writable sret(%"class.WasmEdge::LLVM::Type") align 8 %7, ptr noundef nonnull align 8 dereferenceable(8) %5) #12
  call void @_ZN8WasmEdge4LLVM4Type13getVectorTypeES1_j(ptr dead_on_unwind writable sret(%"class.WasmEdge::LLVM::Type") align 8 %0, ptr noundef %7, i32 noundef 2) #12
  br label %17

14:                                               ; preds = %3
  call void @_ZN8WasmEdge4LLVM7Context10getFloatTyEv(ptr dead_on_unwind writable sret(%"class.WasmEdge::LLVM::Type") align 8 %0, ptr noundef nonnull align 8 dereferenceable(8) %5) #12
  br label %17

15:                                               ; preds = %3
  call void @_ZN8WasmEdge4LLVM7Context11getDoubleTyEv(ptr dead_on_unwind writable sret(%"class.WasmEdge::LLVM::Type") align 8 %0, ptr noundef nonnull align 8 dereferenceable(8) %5) #12
  br label %17

16:                                               ; preds = %3
  unreachable

17:                                               ; preds = %15, %14, %13, %12, %11
  ret void
}