; Function Attrs: mustprogress nounwind uwtable
define internal fastcc void @_ZN12_GLOBAL__N_110toLLVMTypeEN8WasmEdge4LLVM7ContextERKNS0_7ValTypeE(ptr dead_on_unwind noalias nonnull writable writeonly align 8 captures(none) %0, ptr %1, i8 %.2.val) unnamed_addr #0 {
  switch i8 %.2.val, label %14 [
    i8 127, label %3
    i8 126, label %5
    i8 100, label %7
    i8 99, label %7
    i8 123, label %7
    i8 125, label %10
    i8 124, label %12
  ]

3:                                                ; preds = %2
  %4 = tail call ptr @LLVMInt32TypeInContext(ptr noundef %1) #16, !noalias !767
  br label %15

5:                                                ; preds = %2
  %6 = tail call ptr @LLVMInt64TypeInContext(ptr noundef %1) #16, !noalias !770
  br label %15

7:                                                ; preds = %2, %2, %2
  %8 = tail call ptr @LLVMInt64TypeInContext(ptr noundef %1) #16, !noalias !773
  %9 = tail call ptr @LLVMVectorType(ptr noundef %8, i32 noundef 2) #16, !noalias !776
  br label %15

10:                                               ; preds = %2
  %11 = tail call ptr @LLVMFloatTypeInContext(ptr noundef %1) #16, !noalias !779
  br label %15

12:                                               ; preds = %2
  %13 = tail call ptr @LLVMDoubleTypeInContext(ptr noundef %1) #16, !noalias !782
  br label %15

14:                                               ; preds = %2
  unreachable

15:                                               ; preds = %12, %10, %7, %5, %3
  %.sink = phi ptr [ %13, %12 ], [ %11, %10 ], [ %9, %7 ], [ %6, %5 ], [ %4, %3 ]
  store ptr %.sink, ptr %0, align 8
  ret void
}